target datalayout = "e-m:e-p270:32:32-p271:32:32-p272:64:64-i64:64-i128:128-f80:128-n8:16:32:64-S128"
target triple = "x86_64-pc-linux-gnu"

%struct.http2_session_data = type { ptr, ptr, ptr, ptr }
%struct.http2_stream_data = type { ptr, ptr, ptr, ptr, i64, i64, i32 }
%struct.nghttp2_frame_hd = type { i64, i32, i8, i8, i8 }
%struct.nghttp2_headers = type { %struct.nghttp2_frame_hd, i64, %struct.nghttp2_priority_spec, ptr, i64, i32 }
%struct.nghttp2_priority_spec = type { i32, i32, i8 }

@stderr = external global ptr, align 8
@.str.15 = private unnamed_addr constant [22 x i8] c"All headers received\0A\00", align 1

; Function Attrs: nounwind uwtable
define internal i32 @on_frame_recv_callback(ptr noundef %0, ptr noundef %1, ptr noundef %2) #0 {
  %4 = alloca ptr, align 8
  %5 = alloca ptr, align 8
  %6 = alloca ptr, align 8
  %7 = alloca ptr, align 8
  store ptr %0, ptr %4, align 8, !tbaa !63
  store ptr %1, ptr %5, align 8, !tbaa !29
  store ptr %2, ptr %6, align 8, !tbaa !29
  call void @llvm.lifetime.start.p0(i64 8, ptr %7) #10
  %8 = load ptr, ptr %6, align 8, !tbaa !29
  store ptr %8, ptr %7, align 8, !tbaa !29
  %9 = load ptr, ptr %5, align 8, !tbaa !29
  %10 = getelementptr inbounds nuw %struct.nghttp2_frame_hd, ptr %9, i32 0, i32 2
  %11 = load i8, ptr %10, align 4, !tbaa !14
  %12 = zext i8 %11 to i32
  switch i32 %12, label %32 [
    i32 1, label %13
  ]

13:                                               ; preds = %3
  %14 = load ptr, ptr %5, align 8, !tbaa !29
  %15 = getelementptr inbounds nuw %struct.nghttp2_headers, ptr %14, i32 0, i32 5
  %16 = load i32, ptr %15, align 8, !tbaa !14
  %17 = icmp eq i32 %16, 1
  br i1 %17, label %18, label %31

18:                                               ; preds = %13
  %19 = load ptr, ptr %7, align 8, !tbaa !29
  %20 = getelementptr inbounds nuw %struct.http2_session_data, ptr %19, i32 0, i32 3
  %21 = load ptr, ptr %20, align 8, !tbaa !30
  %22 = getelementptr inbounds nuw %struct.http2_stream_data, ptr %21, i32 0, i32 6
  %23 = load i32, ptr %22, align 8, !tbaa !43
  %24 = load ptr, ptr %5, align 8, !tbaa !29
  %25 = getelementptr inbounds nuw %struct.nghttp2_frame_hd, ptr %24, i32 0, i32 1
  %26 = load i32, ptr %25, align 8, !tbaa !14
  %27 = icmp eq i32 %23, %26
  br i1 %27, label %28, label %31

28:                                               ; preds = %18
  %29 = load ptr, ptr @stderr, align 8, !tbaa !12
  %30 = call i32 (ptr, ptr, ...) @fprintf(ptr noundef %29, ptr noundef @.str.15) #10
  br label %31

31:                                               ; preds = %28, %18, %13
  br label %32

32:                                               ; preds = %3, %31
  call void @llvm.lifetime.end.p0(i64 8, ptr %7) #10
  ret i32 0
}