; Function Attrs: nofree nounwind uwtable
define internal noundef i32 @on_frame_recv_callback(ptr readnone captures(none) %0, ptr noundef readonly captures(none) %1, ptr noundef readonly captures(none) %2) #14 {
  %4 = getelementptr inbounds nuw i8, ptr %1, i64 12
  %5 = load i8, ptr %4, align 4, !tbaa !9
  %cond = icmp eq i8 %5, 1
  br i1 %cond, label %6, label %21

6:                                                ; preds = %3
  %7 = getelementptr inbounds nuw i8, ptr %1, i64 56
  %8 = load i32, ptr %7, align 8, !tbaa !9
  %9 = icmp eq i32 %8, 1
  br i1 %9, label %10, label %21

10:                                               ; preds = %6
  %11 = getelementptr inbounds nuw i8, ptr %2, i64 24
  %12 = load ptr, ptr %11, align 8, !tbaa !35
  %13 = getelementptr inbounds nuw i8, ptr %12, i64 48
  %14 = load i32, ptr %13, align 8, !tbaa !29
  %15 = getelementptr inbounds nuw i8, ptr %1, i64 8
  %16 = load i32, ptr %15, align 8, !tbaa !9
  %17 = icmp eq i32 %14, %16
  br i1 %17, label %18, label %21

18:                                               ; preds = %10
  %19 = load ptr, ptr @stderr, align 8, !tbaa !4
  %20 = tail call i64 @fwrite(ptr nonnull @.str.15, i64 21, i64 1, ptr %19) #19
  br label %21

21:                                               ; preds = %6, %10, %18, %3
  ret i32 0
}